target datalayout = "e-m:e-p270:32:32-p271:32:32-p272:64:64-i64:64-i128:128-f80:128-n8:16:32:64-S128"
target triple = "x86_64-unknown-linux-gnu"

%struct.xattr_handler = type { ptr, ptr, i32, ptr, ptr, ptr }

@.str = private unnamed_addr constant [10 x i8] c"security.\00", align 1
@ext4_xattr_security_handler = dso_local local_unnamed_addr constant %struct.xattr_handler { ptr null, ptr @.str, i32 0, ptr null, ptr @ext4_xattr_security_get, ptr @ext4_xattr_security_set }, align 8

; Function Attrs: fn_ret_thunk_extern nounwind null_pointer_is_valid
define dso_local i32 @ext4_init_security(ptr noundef %0, ptr noundef %1, ptr noundef %2, ptr noundef %3) local_unnamed_addr #0 align 16 {
  %5 = tail call i32 @security_inode_init_security(ptr noundef %1, ptr noundef %2, ptr noundef %3, ptr noundef nonnull @ext4_initxattrs, ptr noundef %0) #2
  ret i32 %5
}

; Function Attrs: null_pointer_is_valid
declare dso_local i32 @security_inode_init_security(ptr noundef, ptr noundef, ptr noundef, ptr noundef, ptr noundef) local_unnamed_addr #1

; Function Attrs: fn_ret_thunk_extern nounwind null_pointer_is_valid
define internal i32 @ext4_initxattrs(ptr noundef %0, ptr nocapture noundef readonly %1, ptr noundef %2) #0 align 16 {
  %4 = load ptr, ptr %1, align 8
  %5 = icmp eq ptr %4, null
  br i1 %5, label %19, label %10

6:                                                ; preds = %10
  %7 = getelementptr i8, ptr %12, i64 24
  %8 = load ptr, ptr %7, align 8
  %9 = icmp eq ptr %8, null
  br i1 %9, label %19, label %10, !llvm.loop !5

10:                                               ; preds = %6, %3
  %11 = phi ptr [ %8, %6 ], [ %4, %3 ]
  %12 = phi ptr [ %7, %6 ], [ %1, %3 ]
  %13 = getelementptr inbounds i8, ptr %12, i64 8
  %14 = load ptr, ptr %13, align 8
  %15 = getelementptr inbounds i8, ptr %12, i64 16
  %16 = load i64, ptr %15, align 8
  %17 = tail call i32 @ext4_xattr_set_handle(ptr noundef %2, ptr noundef %0, i32 noundef 6, ptr noundef nonnull %11, ptr noundef %14, i64 noundef %16, i32 noundef 1) #2
  %18 = icmp slt i32 %17, 0
  br i1 %18, label %19, label %6

19:                                               ; preds = %10, %6, %3
  %20 = phi i32 [ 0, %3 ], [ %17, %10 ], [ %17, %6 ]
  ret i32 %20
}

; Function Attrs: fn_ret_thunk_extern nounwind null_pointer_is_valid
define internal i32 @ext4_xattr_security_get(ptr nocapture readnone %0, ptr nocapture readnone %1, ptr noundef %2, ptr noundef %3, ptr noundef %4, i64 noundef %5) #0 align 16 {
  %7 = tail call i32 @ext4_xattr_get(ptr noundef %2, i32 noundef 6, ptr noundef %3, ptr noundef %4, i64 noundef %5) #2
  ret i32 %7
}

; Function Attrs: fn_ret_thunk_extern nounwind null_pointer_is_valid
define internal i32 @ext4_xattr_security_set(ptr nocapture readnone %0, ptr nocapture readnone %1, ptr nocapture readnone %2, ptr noundef %3, ptr noundef %4, ptr noundef %5, i64 noundef %6, i32 noundef %7) #0 align 16 {
  %9 = tail call i32 @ext4_xattr_set(ptr noundef %3, i32 noundef 6, ptr noundef %4, ptr noundef %5, i64 noundef %6, i32 noundef %7) #2
  ret i32 %9
}

; Function Attrs: null_pointer_is_valid
declare dso_local i32 @ext4_xattr_set_handle(ptr noundef, ptr noundef, i32 noundef, ptr noundef, ptr noundef, i64 noundef, i32 noundef) local_unnamed_addr #1

; Function Attrs: null_pointer_is_valid
declare dso_local i32 @ext4_xattr_get(ptr noundef, i32 noundef, ptr noundef, ptr noundef, i64 noundef) local_unnamed_addr #1

; Function Attrs: null_pointer_is_valid
declare dso_local i32 @ext4_xattr_set(ptr noundef, i32 noundef, ptr noundef, ptr noundef, i64 noundef, i32 noundef) local_unnamed_addr #1


!llvm.module.flags = !{!0, !1, !2, !3, !4}

!0 = !{i32 1, !"wchar_size", i32 2}
!1 = !{i32 8, !"cf-protection-branch", i32 1}
!2 = !{i32 4, !"function_return_thunk_extern", i32 1}
!3 = !{i32 4, !"indirect_branch_cs_prefix", i32 1}
!4 = !{i32 4, !"SkipRaxSetup", i32 1}
!5 = distinct !{!5, !6, !7}
!6 = !{!"llvm.loop.mustprogress"}
!7 = !{!"llvm.loop.unroll.disable"}
